target datalayout = "e-m:e-p270:32:32-p271:32:32-p272:64:64-i64:64-i128:128-f80:128-n8:16:32:64-S128"
target triple = "x86_64-pc-linux-gnu"

@.str.1502 = private unnamed_addr constant [31 x i8] c"Invalid string length size %d!\00", align 1

; Function Attrs: null_pointer_is_valid sspstrong uwtable
define internal i32 @format_amqp_1_0_str(ptr noundef %0, i32 noundef %1, i32 noundef %2, ptr noundef %3) #0 {
  %5 = alloca i32, align 4
  %6 = alloca ptr, align 8
  %7 = alloca i32, align 4
  %8 = alloca i32, align 4
  %9 = alloca ptr, align 8
  %10 = alloca i32, align 4
  %11 = alloca i32, align 4
  store ptr %0, ptr %6, align 8
  store i32 %1, ptr %7, align 4
  store i32 %2, ptr %8, align 4
  store ptr %3, ptr %9, align 8
  call void @llvm.lifetime.start.p0(i64 4, ptr %10) #11
  %12 = load i32, ptr %8, align 4
  %13 = icmp eq i32 %12, 1
  br i1 %13, label %14, label %19

14:                                               ; preds = %4
  %15 = load ptr, ptr %6, align 8
  %16 = load i32, ptr %7, align 4
  %17 = call zeroext i8 @tvb_get_uint8(ptr noundef %15, i32 noundef %16)
  %18 = zext i8 %17 to i32
  store i32 %18, ptr %10, align 4
  br label %33

19:                                               ; preds = %4
  %20 = load i32, ptr %8, align 4
  %21 = icmp eq i32 %20, 4
  br i1 %21, label %22, label %26

22:                                               ; preds = %19
  %23 = load ptr, ptr %6, align 8
  %24 = load i32, ptr %7, align 4
  %25 = call i32 @tvb_get_ntohl(ptr noundef %23, i32 noundef %24)
  store i32 %25, ptr %10, align 4
  br label %32

26:                                               ; preds = %19
  %27 = call ptr @wmem_packet_scope()
  %28 = load i32, ptr %8, align 4
  %29 = call noalias ptr (ptr, ptr, ...) @wmem_strdup_printf(ptr noundef %27, ptr noundef @.str.1502, i32 noundef %28)
  %30 = load ptr, ptr %9, align 8
  store ptr %29, ptr %30, align 8
  %31 = load i32, ptr %8, align 4
  store i32 %31, ptr %5, align 4
  store i32 1, ptr %11, align 4
  br label %46

32:                                               ; preds = %22
  br label %33

33:                                               ; preds = %32, %14
  %34 = load i32, ptr %8, align 4
  %35 = load i32, ptr %7, align 4
  %36 = add i32 %35, %34
  store i32 %36, ptr %7, align 4
  %37 = call ptr @wmem_packet_scope()
  %38 = load ptr, ptr %6, align 8
  %39 = load i32, ptr %7, align 4
  %40 = load i32, ptr %10, align 4
  %41 = call ptr @tvb_get_string_enc(ptr noundef %37, ptr noundef %38, i32 noundef %39, i32 noundef %40, i32 noundef 2)
  %42 = load ptr, ptr %9, align 8
  store ptr %41, ptr %42, align 8
  %43 = load i32, ptr %10, align 4
  %44 = load i32, ptr %8, align 4
  %45 = add i32 %43, %44
  store i32 %45, ptr %5, align 4
  store i32 1, ptr %11, align 4
  br label %46

46:                                               ; preds = %33, %26
  call void @llvm.lifetime.end.p0(i64 4, ptr %10) #11
  %47 = load i32, ptr %5, align 4
  ret i32 %47
}