; Function Attrs: null_pointer_is_valid sspstrong uwtable
define internal i32 @format_amqp_1_0_str(ptr noundef %0, i32 noundef %1, i32 noundef %2, ptr noundef writeonly captures(none) initializes((0, 8)) %3) #0 {
  switch i32 %2, label %10 [
    i32 1, label %5
    i32 4, label %8
  ]

5:                                                ; preds = %4
  %6 = tail call zeroext i8 @tvb_get_uint8(ptr noundef %0, i32 noundef %1)
  %7 = zext i8 %6 to i32
  br label %13

8:                                                ; preds = %4
  %9 = tail call i32 @tvb_get_ntohl(ptr noundef %0, i32 noundef %1)
  br label %13

10:                                               ; preds = %4
  %11 = tail call ptr @wmem_packet_scope()
  %12 = tail call noalias ptr (ptr, ptr, ...) @wmem_strdup_printf(ptr noundef %11, ptr noundef nonnull @.str.1502, i32 noundef %2)
  store ptr %12, ptr %3, align 8
  br label %18

13:                                               ; preds = %8, %5
  %.0 = phi i32 [ %7, %5 ], [ %9, %8 ]
  %14 = add i32 %2, %1
  %15 = tail call ptr @wmem_packet_scope()
  %16 = tail call ptr @tvb_get_string_enc(ptr noundef %15, ptr noundef %0, i32 noundef %14, i32 noundef %.0, i32 noundef 2)
  store ptr %16, ptr %3, align 8
  %17 = add i32 %.0, %2
  br label %18

18:                                               ; preds = %13, %10
  %.017 = phi i32 [ %17, %13 ], [ %2, %10 ]
  ret i32 %.017
}